; ModuleID = '15/2186.c'
source_filename = "15/2186.c"
target datalayout = "e-m:e-p270:32:32-p271:32:32-p272:64:64-i64:64-f80:128-n8:16:32:64-S128"
target triple = "x86_64-pc-linux-gnu"

@.str = private unnamed_addr constant [3 x i8] c"%d\00", align 1
@.str.1 = private unnamed_addr constant [4 x i8] c"%d\0A\00", align 1

; Function Attrs: noinline nounwind uwtable
define dso_local i32 @main() #0 {
  %1 = alloca i32, align 4
  %2 = alloca i32**, align 8
  %3 = alloca i32, align 4
  %4 = alloca i32, align 4
  %5 = alloca i32, align 4
  %6 = alloca i32, align 4
  %7 = alloca i32, align 4
  %8 = alloca i32, align 4
  %9 = alloca i32, align 4
  %10 = alloca i32, align 4
  store i32 0, i32* %1, align 4
  store i32 0, i32* %6, align 4
  store i32 0, i32* %7, align 4
  %11 = call i32 (i8*, ...) @__isoc99_scanf(i8* getelementptr inbounds ([3 x i8], [3 x i8]* @.str, i64 0, i64 0), i32* %3)
  %12 = load i32, i32* %3, align 4
  %13 = sext i32 %12 to i64
  %14 = mul i64 %13, 8
  %15 = call noalias i8* @malloc(i64 %14) #3
  %16 = bitcast i8* %15 to i32**
  store i32** %16, i32*** %2, align 8
  store i32 0, i32* %4, align 4
  br label %17

17:                                               ; preds = %31, %0
  %18 = load i32, i32* %4, align 4
  %19 = load i32, i32* %3, align 4
  %20 = icmp slt i32 %18, %19
  br i1 %20, label %21, label %34

21:                                               ; preds = %17
  %22 = load i32, i32* %3, align 4
  %23 = sext i32 %22 to i64
  %24 = mul i64 %23, 4
  %25 = call noalias i8* @malloc(i64 %24) #3
  %26 = bitcast i8* %25 to i32*
  %27 = load i32**, i32*** %2, align 8
  %28 = load i32, i32* %4, align 4
  %29 = sext i32 %28 to i64
  %30 = getelementptr inbounds i32*, i32** %27, i64 %29
  store i32* %26, i32** %30, align 8
  br label %31

31:                                               ; preds = %21
  %32 = load i32, i32* %4, align 4
  %33 = add nsw i32 %32, 1
  store i32 %33, i32* %4, align 4
  br label %17

34:                                               ; preds = %17
  store i32 0, i32* %4, align 4
  br label %35

35:                                               ; preds = %58, %34
  %36 = load i32, i32* %4, align 4
  %37 = load i32, i32* %3, align 4
  %38 = icmp slt i32 %36, %37
  br i1 %38, label %39, label %61

39:                                               ; preds = %35
  store i32 0, i32* %5, align 4
  br label %40

40:                                               ; preds = %54, %39
  %41 = load i32, i32* %5, align 4
  %42 = load i32, i32* %3, align 4
  %43 = icmp slt i32 %41, %42
  br i1 %43, label %44, label %57

44:                                               ; preds = %40
  %45 = load i32**, i32*** %2, align 8
  %46 = load i32, i32* %4, align 4
  %47 = sext i32 %46 to i64
  %48 = getelementptr inbounds i32*, i32** %45, i64 %47
  %49 = load i32*, i32** %48, align 8
  %50 = load i32, i32* %5, align 4
  %51 = sext i32 %50 to i64
  %52 = getelementptr inbounds i32, i32* %49, i64 %51
  %53 = call i32 (i8*, ...) @__isoc99_scanf(i8* getelementptr inbounds ([3 x i8], [3 x i8]* @.str, i64 0, i64 0), i32* %52)
  br label %54

54:                                               ; preds = %44
  %55 = load i32, i32* %5, align 4
  %56 = add nsw i32 %55, 1
  store i32 %56, i32* %5, align 4
  br label %40

57:                                               ; preds = %40
  br label %58

58:                                               ; preds = %57
  %59 = load i32, i32* %4, align 4
  %60 = add nsw i32 %59, 1
  store i32 %60, i32* %4, align 4
  br label %35

61:                                               ; preds = %35
  store i32 1, i32* %4, align 4
  br label %62

62:                                               ; preds = %172, %61
  %63 = load i32, i32* %4, align 4
  %64 = load i32, i32* %3, align 4
  %65 = sub nsw i32 %64, 1
  %66 = icmp slt i32 %63, %65
  br i1 %66, label %67, label %175

67:                                               ; preds = %62
  store i32 1, i32* %5, align 4
  br label %68

68:                                               ; preds = %168, %67
  %69 = load i32, i32* %5, align 4
  %70 = load i32, i32* %3, align 4
  %71 = sub nsw i32 %70, 1
  %72 = icmp slt i32 %69, %71
  br i1 %72, label %73, label %171

73:                                               ; preds = %68
  %74 = load i32**, i32*** %2, align 8
  %75 = load i32, i32* %4, align 4
  %76 = sub nsw i32 %75, 1
  %77 = sext i32 %76 to i64
  %78 = getelementptr inbounds i32*, i32** %74, i64 %77
  %79 = load i32*, i32** %78, align 8
  %80 = load i32, i32* %5, align 4
  %81 = sext i32 %80 to i64
  %82 = getelementptr inbounds i32, i32* %79, i64 %81
  %83 = load i32, i32* %82, align 4
  %84 = load i32**, i32*** %2, align 8
  %85 = load i32, i32* %4, align 4
  %86 = sext i32 %85 to i64
  %87 = getelementptr inbounds i32*, i32** %84, i64 %86
  %88 = load i32*, i32** %87, align 8
  %89 = load i32, i32* %5, align 4
  %90 = sext i32 %89 to i64
  %91 = getelementptr inbounds i32, i32* %88, i64 %90
  %92 = load i32, i32* %91, align 4
  %93 = sub nsw i32 %83, %92
  %94 = icmp eq i32 %93, 255
  br i1 %94, label %95, label %120

95:                                               ; preds = %73
  %96 = load i32**, i32*** %2, align 8
  %97 = load i32, i32* %4, align 4
  %98 = sext i32 %97 to i64
  %99 = getelementptr inbounds i32*, i32** %96, i64 %98
  %100 = load i32*, i32** %99, align 8
  %101 = load i32, i32* %5, align 4
  %102 = sub nsw i32 %101, 1
  %103 = sext i32 %102 to i64
  %104 = getelementptr inbounds i32, i32* %100, i64 %103
  %105 = load i32, i32* %104, align 4
  %106 = load i32**, i32*** %2, align 8
  %107 = load i32, i32* %4, align 4
  %108 = sext i32 %107 to i64
  %109 = getelementptr inbounds i32*, i32** %106, i64 %108
  %110 = load i32*, i32** %109, align 8
  %111 = load i32, i32* %5, align 4
  %112 = sext i32 %111 to i64
  %113 = getelementptr inbounds i32, i32* %110, i64 %112
  %114 = load i32, i32* %113, align 4
  %115 = sub nsw i32 %105, %114
  %116 = icmp eq i32 %115, 255
  br i1 %116, label %117, label %120

117:                                              ; preds = %95
  %118 = load i32, i32* %4, align 4
  store i32 %118, i32* %6, align 4
  %119 = load i32, i32* %5, align 4
  store i32 %119, i32* %7, align 4
  br label %120

120:                                              ; preds = %117, %95, %73
  %121 = load i32**, i32*** %2, align 8
  %122 = load i32, i32* %4, align 4
  %123 = sext i32 %122 to i64
  %124 = getelementptr inbounds i32*, i32** %121, i64 %123
  %125 = load i32*, i32** %124, align 8
  %126 = load i32, i32* %5, align 4
  %127 = add nsw i32 %126, 1
  %128 = sext i32 %127 to i64
  %129 = getelementptr inbounds i32, i32* %125, i64 %128
  %130 = load i32, i32* %129, align 4
  %131 = load i32**, i32*** %2, align 8
  %132 = load i32, i32* %4, align 4
  %133 = sext i32 %132 to i64
  %134 = getelementptr inbounds i32*, i32** %131, i64 %133
  %135 = load i32*, i32** %134, align 8
  %136 = load i32, i32* %5, align 4
  %137 = sext i32 %136 to i64
  %138 = getelementptr inbounds i32, i32* %135, i64 %137
  %139 = load i32, i32* %138, align 4
  %140 = sub nsw i32 %130, %139
  %141 = icmp eq i32 %140, 255
  br i1 %141, label %142, label %167

142:                                              ; preds = %120
  %143 = load i32**, i32*** %2, align 8
  %144 = load i32, i32* %4, align 4
  %145 = add nsw i32 %144, 1
  %146 = sext i32 %145 to i64
  %147 = getelementptr inbounds i32*, i32** %143, i64 %146
  %148 = load i32*, i32** %147, align 8
  %149 = load i32, i32* %5, align 4
  %150 = sext i32 %149 to i64
  %151 = getelementptr inbounds i32, i32* %148, i64 %150
  %152 = load i32, i32* %151, align 4
  %153 = load i32**, i32*** %2, align 8
  %154 = load i32, i32* %4, align 4
  %155 = sext i32 %154 to i64
  %156 = getelementptr inbounds i32*, i32** %153, i64 %155
  %157 = load i32*, i32** %156, align 8
  %158 = load i32, i32* %5, align 4
  %159 = sext i32 %158 to i64
  %160 = getelementptr inbounds i32, i32* %157, i64 %159
  %161 = load i32, i32* %160, align 4
  %162 = sub nsw i32 %152, %161
  %163 = icmp eq i32 %162, 255
  br i1 %163, label %164, label %167

164:                                              ; preds = %142
  %165 = load i32, i32* %4, align 4
  store i32 %165, i32* %8, align 4
  %166 = load i32, i32* %5, align 4
  store i32 %166, i32* %9, align 4
  br label %167

167:                                              ; preds = %164, %142, %120
  br label %168

168:                                              ; preds = %167
  %169 = load i32, i32* %5, align 4
  %170 = add nsw i32 %169, 1
  store i32 %170, i32* %5, align 4
  br label %68

171:                                              ; preds = %68
  br label %172

172:                                              ; preds = %171
  %173 = load i32, i32* %4, align 4
  %174 = add nsw i32 %173, 1
  store i32 %174, i32* %4, align 4
  br label %62

175:                                              ; preds = %62
  %176 = load i32, i32* %8, align 4
  %177 = load i32, i32* %6, align 4
  %178 = sub nsw i32 %176, %177
  %179 = sub nsw i32 %178, 1
  %180 = load i32, i32* %9, align 4
  %181 = load i32, i32* %7, align 4
  %182 = sub nsw i32 %180, %181
  %183 = sub nsw i32 %182, 1
  %184 = mul nsw i32 %179, %183
  store i32 %184, i32* %10, align 4
  %185 = load i32, i32* %10, align 4
  %186 = call i32 (i8*, ...) @printf(i8* getelementptr inbounds ([4 x i8], [4 x i8]* @.str.1, i64 0, i64 0), i32 %185)
  store i32 0, i32* %4, align 4
  br label %187

187:                                              ; preds = %198, %175
  %188 = load i32, i32* %4, align 4
  %189 = load i32, i32* %3, align 4
  %190 = icmp slt i32 %188, %189
  br i1 %190, label %191, label %201

191:                                              ; preds = %187
  %192 = load i32**, i32*** %2, align 8
  %193 = load i32, i32* %4, align 4
  %194 = sext i32 %193 to i64
  %195 = getelementptr inbounds i32*, i32** %192, i64 %194
  %196 = load i32*, i32** %195, align 8
  %197 = bitcast i32* %196 to i8*
  call void @free(i8* %197) #3
  br label %198

198:                                              ; preds = %191
  %199 = load i32, i32* %4, align 4
  %200 = add nsw i32 %199, 1
  store i32 %200, i32* %4, align 4
  br label %187

201:                                              ; preds = %187
  %202 = load i32**, i32*** %2, align 8
  %203 = bitcast i32** %202 to i8*
  call void @free(i8* %203) #3
  ret i32 0
}

declare dso_local i32 @__isoc99_scanf(i8*, ...) #1

; Function Attrs: nounwind
declare dso_local noalias i8* @malloc(i64) #2

declare dso_local i32 @printf(i8*, ...) #1

; Function Attrs: nounwind
declare dso_local void @free(i8*) #2


!llvm.module.flags = !{!0}
!llvm.ident = !{!1}

!0 = !{i32 1, !"wchar_size", i32 4}
!1 = !{!"clang version 10.0.0-4ubuntu1 "}
